---
triple:          'arm64-apple-darwin'
binary-path:     '/Users/anthonyfrederick/Desktop/csc_142/CSC_142/week15/extreme_assignment15/riddlers_revenge'
relocations:
  - { offsetInCU: 0x2F51, offset: 0x2F51, size: 0x8, addend: 0x0, symName: __ZNSt3__124__put_character_sequenceB8ue170006IcNS_11char_traitsIcEEEERNS_13basic_ostreamIT_T0_EES7_PKS4_m, symObjAddr: 0x1224, symBinAddr: 0x100003270, symSize: 0x1EC }
  - { offsetInCU: 0x48B7, offset: 0x48B7, size: 0x8, addend: 0x0, symName: __ZNSt3__110make_tupleB8ue170006IJiRA55_KcbEEENS_5tupleIJDpNS_18__unwrap_ref_decayIT_E4typeEEEEDpOS6_, symObjAddr: 0x58, symBinAddr: 0x1000020A4, symSize: 0x40 }
  - { offsetInCU: 0x5113, offset: 0x5113, size: 0x8, addend: 0x0, symName: __ZNSt3__13tieB8ue170006IJiNS_12basic_stringIcNS_11char_traitsIcEENS_9allocatorIcEEEEbEEENS_5tupleIJDpRT_EEESA_, symObjAddr: 0x258, symBinAddr: 0x1000022A4, symSize: 0x40 }
  - { offsetInCU: 0x56B8, offset: 0x56B8, size: 0x8, addend: 0x0, symName: __ZNSt3__1lsB8ue170006INS_11char_traitsIcEEEERNS_13basic_ostreamIcT_EES6_PKc, symObjAddr: 0x300, symBinAddr: 0x10000234C, symSize: 0x48 }
  - { offsetInCU: 0x56FE, offset: 0x56FE, size: 0x8, addend: 0x0, symName: __ZNSt3__1lsB8ue170006IcNS_11char_traitsIcEENS_9allocatorIcEEEERNS_13basic_ostreamIT_T0_EES9_RKNS_12basic_stringIS6_S7_T1_EE, symObjAddr: 0x348, symBinAddr: 0x100002394, symSize: 0x4C }
  - { offsetInCU: 0x578F, offset: 0x578F, size: 0x8, addend: 0x0, symName: __ZNSt3__13getB8ue170006ILm0EJiPKcbEEERNS_13tuple_elementIXT_ENS_5tupleIJDpT0_EEEE4typeERS7_, symObjAddr: 0x600, symBinAddr: 0x10000264C, symSize: 0x24 }
  - { offsetInCU: 0x57DB, offset: 0x57DB, size: 0x8, addend: 0x0, symName: __ZNSt3__13getB8ue170006ILm1EJiPKcbEEERNS_13tuple_elementIXT_ENS_5tupleIJDpT0_EEEE4typeERS7_, symObjAddr: 0x624, symBinAddr: 0x100002670, symSize: 0x28 }
  - { offsetInCU: 0x5827, offset: 0x5827, size: 0x8, addend: 0x0, symName: __ZNSt3__13getB8ue170006ILm2EJiPKcbEEERNS_13tuple_elementIXT_ENS_5tupleIJDpT0_EEEE4typeERS7_, symObjAddr: 0x684, symBinAddr: 0x1000026D0, symSize: 0x28 }
  - { offsetInCU: 0x5873, offset: 0x5873, size: 0x8, addend: 0x0, symName: __ZNSt3__118__constexpr_strlenB8ue170006EPKc, symObjAddr: 0x88C, symBinAddr: 0x1000028D8, symSize: 0x24 }
  - { offsetInCU: 0x58BE, offset: 0x58BE, size: 0x8, addend: 0x0, symName: __ZNSt3__127__memberwise_forward_assignB8ue170006INS_5tupleIJRiRNS_12basic_stringIcNS_11char_traitsIcEENS_9allocatorIcEEEERbEEENS1_IJiS8_bEEEJiS8_bEJLm0ELm1ELm2EEEEvRT_OT0_NS_13__tuple_typesIJDpT1_EEENS_15__tuple_indicesIJXspT2_EEEE, symObjAddr: 0xBCC, symBinAddr: 0x100002C18, symSize: 0xB0 }
  - { offsetInCU: 0x594C, offset: 0x594C, size: 0x8, addend: 0x0, symName: __ZNSt3__19__swallowB8ue170006IJiiiEEEvDpOT_, symObjAddr: 0xC7C, symBinAddr: 0x100002CC8, symSize: 0x18 }
  - { offsetInCU: 0x599D, offset: 0x599D, size: 0x8, addend: 0x0, symName: __ZNSt3__13getB8ue170006ILm0EJiNS_12basic_stringIcNS_11char_traitsIcEENS_9allocatorIcEEEEbEEERNS_13tuple_elementIXT_ENS_5tupleIJDpT0_EEEE4typeERSB_, symObjAddr: 0xC94, symBinAddr: 0x100002CE0, symSize: 0x24 }
  - { offsetInCU: 0x59E9, offset: 0x59E9, size: 0x8, addend: 0x0, symName: __ZNSt3__13getB8ue170006ILm0EJRiRNS_12basic_stringIcNS_11char_traitsIcEENS_9allocatorIcEEEERbEEERNS_13tuple_elementIXT_ENS_5tupleIJDpT0_EEEE4typeERSE_, symObjAddr: 0xCB8, symBinAddr: 0x100002D04, symSize: 0x24 }
  - { offsetInCU: 0x5A35, offset: 0x5A35, size: 0x8, addend: 0x0, symName: __ZNSt3__13getB8ue170006ILm1EJiNS_12basic_stringIcNS_11char_traitsIcEENS_9allocatorIcEEEEbEEERNS_13tuple_elementIXT_ENS_5tupleIJDpT0_EEEE4typeERSB_, symObjAddr: 0xCDC, symBinAddr: 0x100002D28, symSize: 0x28 }
  - { offsetInCU: 0x5A81, offset: 0x5A81, size: 0x8, addend: 0x0, symName: __ZNSt3__13getB8ue170006ILm1EJRiRNS_12basic_stringIcNS_11char_traitsIcEENS_9allocatorIcEEEERbEEERNS_13tuple_elementIXT_ENS_5tupleIJDpT0_EEEE4typeERSE_, symObjAddr: 0xD04, symBinAddr: 0x100002D50, symSize: 0x28 }
  - { offsetInCU: 0x5ACD, offset: 0x5ACD, size: 0x8, addend: 0x0, symName: __ZNSt3__13getB8ue170006ILm2EJiNS_12basic_stringIcNS_11char_traitsIcEENS_9allocatorIcEEEEbEEERNS_13tuple_elementIXT_ENS_5tupleIJDpT0_EEEE4typeERSB_, symObjAddr: 0xD60, symBinAddr: 0x100002DAC, symSize: 0x28 }
  - { offsetInCU: 0x5B19, offset: 0x5B19, size: 0x8, addend: 0x0, symName: __ZNSt3__13getB8ue170006ILm2EJRiRNS_12basic_stringIcNS_11char_traitsIcEENS_9allocatorIcEEEERbEEERNS_13tuple_elementIXT_ENS_5tupleIJDpT0_EEEE4typeERSE_, symObjAddr: 0xD88, symBinAddr: 0x100002DD4, symSize: 0x28 }
  - { offsetInCU: 0x5B65, offset: 0x5B65, size: 0x8, addend: 0x0, symName: __ZNSt3__119__libcpp_deallocateB8ue170006EPvmm, symObjAddr: 0x110C, symBinAddr: 0x100003158, symSize: 0x30 }
  - { offsetInCU: 0x5BAD, offset: 0x5BAD, size: 0x8, addend: 0x0, symName: __ZNSt3__127__do_deallocate_handle_sizeB8ue170006IJEEEvPvmDpT_, symObjAddr: 0x113C, symBinAddr: 0x100003188, symSize: 0x28 }
  - { offsetInCU: 0x5BEB, offset: 0x5BEB, size: 0x8, addend: 0x0, symName: __ZNSt3__124__libcpp_operator_deleteB8ue170006IJPvEEEvDpT_, symObjAddr: 0x1164, symBinAddr: 0x1000031B0, symSize: 0x24 }
  - { offsetInCU: 0x5C53, offset: 0x5C53, size: 0x8, addend: 0x0, symName: __ZNSt3__116__pad_and_outputB8ue170006IcNS_11char_traitsIcEEEENS_19ostreambuf_iteratorIT_T0_EES6_PKS4_S8_S8_RNS_8ios_baseES4_, symObjAddr: 0x142C, symBinAddr: 0x100003478, symSize: 0x240 }
  - { offsetInCU: 0x5D22, offset: 0x5D22, size: 0x8, addend: 0x0, symName: __ZNSt3__112__to_addressB8ue170006IKcEEPT_S3_, symObjAddr: 0x189C, symBinAddr: 0x1000038E8, symSize: 0x14 }
  - { offsetInCU: 0x5D8A, offset: 0x5D8A, size: 0x8, addend: 0x0, symName: __ZNSt3__19use_facetB8ue170006INS_5ctypeIcEEEERKT_RKNS_6localeE, symObjAddr: 0x1AAC, symBinAddr: 0x100003AF8, symSize: 0x2C }
  - { offsetInCU: 0x88B8, offset: 0x88B8, size: 0x8, addend: 0x0, symName: __Z13getRiddleInfov, symObjAddr: 0x0, symBinAddr: 0x10000204C, symSize: 0x58 }
  - { offsetInCU: 0x89E8, offset: 0x89E8, size: 0x8, addend: 0x0, symName: __ZNSt3__15tupleIJiNS_12basic_stringIcNS_11char_traitsIcEENS_9allocatorIcEEEEbEEC1B8ue170006IJiPKcbELi0EEEONS0_IJDpT_EEE, symObjAddr: 0x98, symBinAddr: 0x1000020E4, symSize: 0x34 }
  - { offsetInCU: 0x8A3C, offset: 0x8A3C, size: 0x8, addend: 0x0, symName: _main, symObjAddr: 0xCC, symBinAddr: 0x100002118, symSize: 0x160 }
  - { offsetInCU: 0x8A84, offset: 0x8A84, size: 0x8, addend: 0x0, symName: __ZNSt3__112basic_stringIcNS_11char_traitsIcEENS_9allocatorIcEEEC1B8ue170006Ev, symObjAddr: 0x22C, symBinAddr: 0x100002278, symSize: 0x2C }
  - { offsetInCU: 0x8B3F, offset: 0x8B3F, size: 0x8, addend: 0x0, symName: __ZNSt3__15tupleIJRiRNS_12basic_stringIcNS_11char_traitsIcEENS_9allocatorIcEEEERbEEaSB8ue170006IJiS7_bELi0EEERSA_ONS0_IJDpT_EEE, symObjAddr: 0x298, symBinAddr: 0x1000022E4, symSize: 0x3C }
  - { offsetInCU: 0x8B8F, offset: 0x8B8F, size: 0x8, addend: 0x0, symName: __ZNSt3__15tupleIJiNS_12basic_stringIcNS_11char_traitsIcEENS_9allocatorIcEEEEbEED1Ev, symObjAddr: 0x2D4, symBinAddr: 0x100002320, symSize: 0x2C }
  - { offsetInCU: 0x8BDC, offset: 0x8BDC, size: 0x8, addend: 0x0, symName: __ZNSt3__15tupleIJiPKcbEEC1B8ue170006IJiRA55_S1_bELi0EEEDpOT_, symObjAddr: 0x394, symBinAddr: 0x1000023E0, symSize: 0x44 }
  - { offsetInCU: 0x8C4E, offset: 0x8C4E, size: 0x8, addend: 0x0, symName: __ZNSt3__15tupleIJiPKcbEEC2B8ue170006IJiRA55_S1_bELi0EEEDpOT_, symObjAddr: 0x3D8, symBinAddr: 0x100002424, symSize: 0x44 }
  - { offsetInCU: 0x8CC0, offset: 0x8CC0, size: 0x8, addend: 0x0, symName: __ZNSt3__112__tuple_implINS_15__tuple_indicesIJLm0ELm1ELm2EEEEJiPKcbEEC1B8ue170006IJLm0ELm1ELm2EEJiS4_bEJEJEJiRA55_S3_bEEENS1_IJXspT_EEEENS_13__tuple_typesIJDpT0_EEENS1_IJXspT1_EEEENSA_IJDpT2_EEEDpOT3_, symObjAddr: 0x41C, symBinAddr: 0x100002468, symSize: 0x44 }
  - { offsetInCU: 0x8D8F, offset: 0x8D8F, size: 0x8, addend: 0x0, symName: __ZNSt3__112__tuple_implINS_15__tuple_indicesIJLm0ELm1ELm2EEEEJiPKcbEEC2B8ue170006IJLm0ELm1ELm2EEJiS4_bEJEJEJiRA55_S3_bEEENS1_IJXspT_EEEENS_13__tuple_typesIJDpT0_EEENS1_IJXspT1_EEEENSA_IJDpT2_EEEDpOT3_, symObjAddr: 0x460, symBinAddr: 0x1000024AC, symSize: 0x5C }
  - { offsetInCU: 0x8E5E, offset: 0x8E5E, size: 0x8, addend: 0x0, symName: __ZNSt3__112__tuple_leafILm0EiLb0EEC2B8ue170006IivEEOT_, symObjAddr: 0x4BC, symBinAddr: 0x100002508, symSize: 0x24 }
  - { offsetInCU: 0x8EA1, offset: 0x8EA1, size: 0x8, addend: 0x0, symName: __ZNSt3__112__tuple_leafILm1EPKcLb0EEC2B8ue170006IRA55_S1_vEEOT_, symObjAddr: 0x4E0, symBinAddr: 0x10000252C, symSize: 0x20 }
  - { offsetInCU: 0x8EE4, offset: 0x8EE4, size: 0x8, addend: 0x0, symName: __ZNSt3__112__tuple_leafILm2EbLb0EEC2B8ue170006IbvEEOT_, symObjAddr: 0x500, symBinAddr: 0x10000254C, symSize: 0x28 }
  - { offsetInCU: 0x8F27, offset: 0x8F27, size: 0x8, addend: 0x0, symName: __ZNSt3__15tupleIJiNS_12basic_stringIcNS_11char_traitsIcEENS_9allocatorIcEEEEbEEC2B8ue170006IJiPKcbELi0EEEONS0_IJDpT_EEE, symObjAddr: 0x528, symBinAddr: 0x100002574, symSize: 0x34 }
  - { offsetInCU: 0x8F7B, offset: 0x8F7B, size: 0x8, addend: 0x0, symName: __ZNSt3__112__tuple_implINS_15__tuple_indicesIJLm0ELm1ELm2EEEEJiNS_12basic_stringIcNS_11char_traitsIcEENS_9allocatorIcEEEEbEEC1B8ue170006INS_5tupleIJiPKcbEEEvEEOT_, symObjAddr: 0x55C, symBinAddr: 0x1000025A8, symSize: 0x34 }
  - { offsetInCU: 0x8FBE, offset: 0x8FBE, size: 0x8, addend: 0x0, symName: __ZNSt3__112__tuple_implINS_15__tuple_indicesIJLm0ELm1ELm2EEEEJiNS_12basic_stringIcNS_11char_traitsIcEENS_9allocatorIcEEEEbEEC2B8ue170006INS_5tupleIJiPKcbEEEvEEOT_, symObjAddr: 0x590, symBinAddr: 0x1000025DC, symSize: 0x70 }
  - { offsetInCU: 0x9006, offset: 0x9006, size: 0x8, addend: 0x0, symName: __ZNSt3__112__tuple_leafILm1ENS_12basic_stringIcNS_11char_traitsIcEENS_9allocatorIcEEEELb0EEC2B8ue170006IPKcvEEOT_, symObjAddr: 0x64C, symBinAddr: 0x100002698, symSize: 0x38 }
  - { offsetInCU: 0x9049, offset: 0x9049, size: 0x8, addend: 0x0, symName: __ZNSt3__112__tuple_leafILm0EiLb0EE3getB8ue170006Ev, symObjAddr: 0x6AC, symBinAddr: 0x1000026F8, symSize: 0x14 }
  - { offsetInCU: 0x906F, offset: 0x906F, size: 0x8, addend: 0x0, symName: __ZNSt3__112__tuple_leafILm1EPKcLb0EE3getB8ue170006Ev, symObjAddr: 0x6C0, symBinAddr: 0x10000270C, symSize: 0x14 }
  - { offsetInCU: 0x909A, offset: 0x909A, size: 0x8, addend: 0x0, symName: __ZNSt3__112basic_stringIcNS_11char_traitsIcEENS_9allocatorIcEEEC1B8ue170006ILi0EEEPKc, symObjAddr: 0x6D4, symBinAddr: 0x100002720, symSize: 0x34 }
  - { offsetInCU: 0x90D9, offset: 0x90D9, size: 0x8, addend: 0x0, symName: __ZNSt3__112basic_stringIcNS_11char_traitsIcEENS_9allocatorIcEEEC2B8ue170006ILi0EEEPKc, symObjAddr: 0x708, symBinAddr: 0x100002754, symSize: 0x58 }
  - { offsetInCU: 0x911D, offset: 0x911D, size: 0x8, addend: 0x0, symName: __ZNSt3__117__compressed_pairINS_12basic_stringIcNS_11char_traitsIcEENS_9allocatorIcEEE5__repES5_EC1B8ue170006INS_18__default_init_tagESA_EEOT_OT0_, symObjAddr: 0x760, symBinAddr: 0x1000027AC, symSize: 0x3C }
  - { offsetInCU: 0x9175, offset: 0x9175, size: 0x8, addend: 0x0, symName: __ZNSt3__111char_traitsIcE6lengthB8ue170006EPKc, symObjAddr: 0x79C, symBinAddr: 0x1000027E8, symSize: 0x34 }
  - { offsetInCU: 0x9198, offset: 0x9198, size: 0x8, addend: 0x0, symName: __ZNSt3__117__compressed_pairINS_12basic_stringIcNS_11char_traitsIcEENS_9allocatorIcEEE5__repES5_EC2B8ue170006INS_18__default_init_tagESA_EEOT_OT0_, symObjAddr: 0x7D0, symBinAddr: 0x10000281C, symSize: 0x3C }
  - { offsetInCU: 0x91F0, offset: 0x91F0, size: 0x8, addend: 0x0, symName: __ZNSt3__122__compressed_pair_elemINS_12basic_stringIcNS_11char_traitsIcEENS_9allocatorIcEEE5__repELi0ELb0EEC2B8ue170006ENS_18__default_init_tagE, symObjAddr: 0x80C, symBinAddr: 0x100002858, symSize: 0x14 }
  - { offsetInCU: 0x9225, offset: 0x9225, size: 0x8, addend: 0x0, symName: __ZNSt3__122__compressed_pair_elemINS_9allocatorIcEELi1ELb1EEC2B8ue170006ENS_18__default_init_tagE, symObjAddr: 0x820, symBinAddr: 0x10000286C, symSize: 0x2C }
  - { offsetInCU: 0x925A, offset: 0x925A, size: 0x8, addend: 0x0, symName: __ZNSt3__19allocatorIcEC2B8ue170006Ev, symObjAddr: 0x84C, symBinAddr: 0x100002898, symSize: 0x2C }
  - { offsetInCU: 0x9284, offset: 0x9284, size: 0x8, addend: 0x0, symName: __ZNSt3__116__non_trivial_ifILb1ENS_9allocatorIcEEEC2B8ue170006Ev, symObjAddr: 0x878, symBinAddr: 0x1000028C4, symSize: 0x14 }
  - { offsetInCU: 0x92AE, offset: 0x92AE, size: 0x8, addend: 0x0, symName: __ZNSt3__112__tuple_leafILm2EbLb0EE3getB8ue170006Ev, symObjAddr: 0x8BC, symBinAddr: 0x100002908, symSize: 0x14 }
  - { offsetInCU: 0x92D4, offset: 0x92D4, size: 0x8, addend: 0x0, symName: __ZNSt3__15tupleIJRiRNS_12basic_stringIcNS_11char_traitsIcEENS_9allocatorIcEEEERbEEC1B8ue170006INS_4_AndELi0EEES1_S8_S9_, symObjAddr: 0x8D0, symBinAddr: 0x10000291C, symSize: 0x44 }
  - { offsetInCU: 0x933A, offset: 0x933A, size: 0x8, addend: 0x0, symName: __ZNSt3__15tupleIJRiRNS_12basic_stringIcNS_11char_traitsIcEENS_9allocatorIcEEEERbEEC2B8ue170006INS_4_AndELi0EEES1_S8_S9_, symObjAddr: 0x914, symBinAddr: 0x100002960, symSize: 0x44 }
  - { offsetInCU: 0x93A0, offset: 0x93A0, size: 0x8, addend: 0x0, symName: __ZNSt3__112__tuple_implINS_15__tuple_indicesIJLm0ELm1ELm2EEEEJRiRNS_12basic_stringIcNS_11char_traitsIcEENS_9allocatorIcEEEERbEEC1B8ue170006IJLm0ELm1ELm2EEJS3_SA_SB_EJEJEJS3_SA_SB_EEENS1_IJXspT_EEEENS_13__tuple_typesIJDpT0_EEENS1_IJXspT1_EEEENSF_IJDpT2_EEEDpOT3_, symObjAddr: 0x958, symBinAddr: 0x1000029A4, symSize: 0x44 }
  - { offsetInCU: 0x946F, offset: 0x946F, size: 0x8, addend: 0x0, symName: __ZNSt3__112__tuple_implINS_15__tuple_indicesIJLm0ELm1ELm2EEEEJRiRNS_12basic_stringIcNS_11char_traitsIcEENS_9allocatorIcEEEERbEEC2B8ue170006IJLm0ELm1ELm2EEJS3_SA_SB_EJEJEJS3_SA_SB_EEENS1_IJXspT_EEEENS_13__tuple_typesIJDpT0_EEENS1_IJXspT1_EEEENSF_IJDpT2_EEEDpOT3_, symObjAddr: 0x99C, symBinAddr: 0x1000029E8, symSize: 0x5C }
  - { offsetInCU: 0x953E, offset: 0x953E, size: 0x8, addend: 0x0, symName: __ZNSt3__112__tuple_leafILm0ERiLb0EEC2B8ue170006IS1_vEEOT_, symObjAddr: 0x9F8, symBinAddr: 0x100002A44, symSize: 0x20 }
  - { offsetInCU: 0x9581, offset: 0x9581, size: 0x8, addend: 0x0, symName: __ZNSt3__112__tuple_leafILm1ERNS_12basic_stringIcNS_11char_traitsIcEENS_9allocatorIcEEEELb0EEC2B8ue170006IS7_vEEOT_, symObjAddr: 0xA18, symBinAddr: 0x100002A64, symSize: 0x20 }
  - { offsetInCU: 0x95C4, offset: 0x95C4, size: 0x8, addend: 0x0, symName: __ZNSt3__112__tuple_leafILm2ERbLb0EEC2B8ue170006IS1_vEEOT_, symObjAddr: 0xA38, symBinAddr: 0x100002A84, symSize: 0x20 }
  - { offsetInCU: 0x9607, offset: 0x9607, size: 0x8, addend: 0x0, symName: __ZNSt3__15tupleIJiNS_12basic_stringIcNS_11char_traitsIcEENS_9allocatorIcEEEEbEED2Ev, symObjAddr: 0xA58, symBinAddr: 0x100002AA4, symSize: 0x2C }
  - { offsetInCU: 0x9634, offset: 0x9634, size: 0x8, addend: 0x0, symName: __ZNSt3__112__tuple_implINS_15__tuple_indicesIJLm0ELm1ELm2EEEEJiNS_12basic_stringIcNS_11char_traitsIcEENS_9allocatorIcEEEEbEED1Ev, symObjAddr: 0xA84, symBinAddr: 0x100002AD0, symSize: 0x2C }
  - { offsetInCU: 0x9661, offset: 0x9661, size: 0x8, addend: 0x0, symName: __ZNSt3__112__tuple_implINS_15__tuple_indicesIJLm0ELm1ELm2EEEEJiNS_12basic_stringIcNS_11char_traitsIcEENS_9allocatorIcEEEEbEED2Ev, symObjAddr: 0xAB0, symBinAddr: 0x100002AFC, symSize: 0x30 }
  - { offsetInCU: 0x968E, offset: 0x968E, size: 0x8, addend: 0x0, symName: __ZNSt3__112__tuple_leafILm1ENS_12basic_stringIcNS_11char_traitsIcEENS_9allocatorIcEEEELb0EED2Ev, symObjAddr: 0xAE0, symBinAddr: 0x100002B2C, symSize: 0x2C }
  - { offsetInCU: 0x96BB, offset: 0x96BB, size: 0x8, addend: 0x0, symName: __ZNSt3__112basic_stringIcNS_11char_traitsIcEENS_9allocatorIcEEEC2B8ue170006Ev, symObjAddr: 0xB0C, symBinAddr: 0x100002B58, symSize: 0x48 }
  - { offsetInCU: 0x96E5, offset: 0x96E5, size: 0x8, addend: 0x0, symName: __ZNSt3__112basic_stringIcNS_11char_traitsIcEENS_9allocatorIcEEE14__default_initB8ue170006Ev, symObjAddr: 0xB54, symBinAddr: 0x100002BA0, symSize: 0x40 }
  - { offsetInCU: 0x970B, offset: 0x970B, size: 0x8, addend: 0x0, symName: __ZNSt3__117__compressed_pairINS_12basic_stringIcNS_11char_traitsIcEENS_9allocatorIcEEE5__repES5_E5firstB8ue170006Ev, symObjAddr: 0xB94, symBinAddr: 0x100002BE0, symSize: 0x24 }
  - { offsetInCU: 0x9731, offset: 0x9731, size: 0x8, addend: 0x0, symName: __ZNSt3__122__compressed_pair_elemINS_12basic_stringIcNS_11char_traitsIcEENS_9allocatorIcEEE5__repELi0ELb0EE5__getB8ue170006Ev, symObjAddr: 0xBB8, symBinAddr: 0x100002C04, symSize: 0x14 }
  - { offsetInCU: 0x9757, offset: 0x9757, size: 0x8, addend: 0x0, symName: __ZNSt3__112basic_stringIcNS_11char_traitsIcEENS_9allocatorIcEEEaSB8ue170006EOS5_, symObjAddr: 0xD2C, symBinAddr: 0x100002D78, symSize: 0x34 }
  - { offsetInCU: 0x978C, offset: 0x978C, size: 0x8, addend: 0x0, symName: __ZNSt3__112__tuple_leafILm0ERiLb0EE3getB8ue170006Ev, symObjAddr: 0xDB0, symBinAddr: 0x100002DFC, symSize: 0x18 }
  - { offsetInCU: 0x97B2, offset: 0x97B2, size: 0x8, addend: 0x0, symName: __ZNSt3__112__tuple_leafILm1ENS_12basic_stringIcNS_11char_traitsIcEENS_9allocatorIcEEEELb0EE3getB8ue170006Ev, symObjAddr: 0xDC8, symBinAddr: 0x100002E14, symSize: 0x14 }
  - { offsetInCU: 0x97D8, offset: 0x97D8, size: 0x8, addend: 0x0, symName: __ZNSt3__112__tuple_leafILm1ERNS_12basic_stringIcNS_11char_traitsIcEENS_9allocatorIcEEEELb0EE3getB8ue170006Ev, symObjAddr: 0xDDC, symBinAddr: 0x100002E28, symSize: 0x18 }
  - { offsetInCU: 0x97FE, offset: 0x97FE, size: 0x8, addend: 0x0, symName: __ZNSt3__112basic_stringIcNS_11char_traitsIcEENS_9allocatorIcEEE13__move_assignB8ue170006ERS5_NS_17integral_constantIbLb1EEE, symObjAddr: 0xDF4, symBinAddr: 0x100002E40, symSize: 0xC8 }
  - { offsetInCU: 0x9840, offset: 0x9840, size: 0x8, addend: 0x0, symName: __ZNKSt3__112basic_stringIcNS_11char_traitsIcEENS_9allocatorIcEEE9__is_longB8ue170006Ev, symObjAddr: 0xEBC, symBinAddr: 0x100002F08, symSize: 0x38 }
  - { offsetInCU: 0x9866, offset: 0x9866, size: 0x8, addend: 0x0, symName: __ZNSt3__116allocator_traitsINS_9allocatorIcEEE10deallocateB8ue170006ERS2_Pcm, symObjAddr: 0xEF4, symBinAddr: 0x100002F40, symSize: 0x34 }
  - { offsetInCU: 0x98A8, offset: 0x98A8, size: 0x8, addend: 0x0, symName: __ZNSt3__112basic_stringIcNS_11char_traitsIcEENS_9allocatorIcEEE7__allocB8ue170006Ev, symObjAddr: 0xF28, symBinAddr: 0x100002F74, symSize: 0x24 }
  - { offsetInCU: 0x98CE, offset: 0x98CE, size: 0x8, addend: 0x0, symName: __ZNSt3__112basic_stringIcNS_11char_traitsIcEENS_9allocatorIcEEE18__get_long_pointerB8ue170006Ev, symObjAddr: 0xF4C, symBinAddr: 0x100002F98, symSize: 0x28 }
  - { offsetInCU: 0x98F4, offset: 0x98F4, size: 0x8, addend: 0x0, symName: __ZNKSt3__112basic_stringIcNS_11char_traitsIcEENS_9allocatorIcEEE14__get_long_capB8ue170006Ev, symObjAddr: 0xF74, symBinAddr: 0x100002FC0, symSize: 0x30 }
  - { offsetInCU: 0x991A, offset: 0x991A, size: 0x8, addend: 0x0, symName: __ZNSt3__112basic_stringIcNS_11char_traitsIcEENS_9allocatorIcEEE19__move_assign_allocB8ue170006ERS5_, symObjAddr: 0xFA4, symBinAddr: 0x100002FF0, symSize: 0x2C }
  - { offsetInCU: 0x994F, offset: 0x994F, size: 0x8, addend: 0x0, symName: __ZNSt3__112basic_stringIcNS_11char_traitsIcEENS_9allocatorIcEEE16__set_short_sizeB8ue170006Em, symObjAddr: 0xFD0, symBinAddr: 0x10000301C, symSize: 0x78 }
  - { offsetInCU: 0x9984, offset: 0x9984, size: 0x8, addend: 0x0, symName: __ZNSt3__111char_traitsIcE6assignB8ue170006ERcRKc, symObjAddr: 0x1048, symBinAddr: 0x100003094, symSize: 0x24 }
  - { offsetInCU: 0x99B5, offset: 0x99B5, size: 0x8, addend: 0x0, symName: __ZNSt3__112basic_stringIcNS_11char_traitsIcEENS_9allocatorIcEEE19__get_short_pointerB8ue170006Ev, symObjAddr: 0x106C, symBinAddr: 0x1000030B8, symSize: 0x28 }
  - { offsetInCU: 0x99DB, offset: 0x99DB, size: 0x8, addend: 0x0, symName: __ZNKSt3__117__compressed_pairINS_12basic_stringIcNS_11char_traitsIcEENS_9allocatorIcEEE5__repES5_E5firstB8ue170006Ev, symObjAddr: 0x1094, symBinAddr: 0x1000030E0, symSize: 0x24 }
  - { offsetInCU: 0x9A01, offset: 0x9A01, size: 0x8, addend: 0x0, symName: __ZNKSt3__122__compressed_pair_elemINS_12basic_stringIcNS_11char_traitsIcEENS_9allocatorIcEEE5__repELi0ELb0EE5__getB8ue170006Ev, symObjAddr: 0x10B8, symBinAddr: 0x100003104, symSize: 0x14 }
  - { offsetInCU: 0x9A27, offset: 0x9A27, size: 0x8, addend: 0x0, symName: __ZNSt3__19allocatorIcE10deallocateB8ue170006EPcm, symObjAddr: 0x10CC, symBinAddr: 0x100003118, symSize: 0x40 }
  - { offsetInCU: 0x9A69, offset: 0x9A69, size: 0x8, addend: 0x0, symName: __ZNSt3__117__compressed_pairINS_12basic_stringIcNS_11char_traitsIcEENS_9allocatorIcEEE5__repES5_E6secondB8ue170006Ev, symObjAddr: 0x1188, symBinAddr: 0x1000031D4, symSize: 0x24 }
  - { offsetInCU: 0x9A8F, offset: 0x9A8F, size: 0x8, addend: 0x0, symName: __ZNSt3__122__compressed_pair_elemINS_9allocatorIcEELi1ELb1EE5__getB8ue170006Ev, symObjAddr: 0x11AC, symBinAddr: 0x1000031F8, symSize: 0x14 }
  - { offsetInCU: 0x9AB5, offset: 0x9AB5, size: 0x8, addend: 0x0, symName: __ZNSt3__112basic_stringIcNS_11char_traitsIcEENS_9allocatorIcEEE19__move_assign_allocB8ue170006ERS5_NS_17integral_constantIbLb1EEE, symObjAddr: 0x11C0, symBinAddr: 0x10000320C, symSize: 0x38 }
  - { offsetInCU: 0x9AF5, offset: 0x9AF5, size: 0x8, addend: 0x0, symName: __ZNSt3__114pointer_traitsIPcE10pointer_toB8ue170006ERc, symObjAddr: 0x11F8, symBinAddr: 0x100003244, symSize: 0x14 }
  - { offsetInCU: 0x9B18, offset: 0x9B18, size: 0x8, addend: 0x0, symName: __ZNSt3__112__tuple_leafILm2ERbLb0EE3getB8ue170006Ev, symObjAddr: 0x120C, symBinAddr: 0x100003258, symSize: 0x18 }
  - { offsetInCU: 0x9B5C, offset: 0x9B5C, size: 0x8, addend: 0x0, symName: __ZNKSt3__113basic_ostreamIcNS_11char_traitsIcEEE6sentrycvbB8ue170006Ev, symObjAddr: 0x1410, symBinAddr: 0x10000345C, symSize: 0x1C }
  - { offsetInCU: 0x9B82, offset: 0x9B82, size: 0x8, addend: 0x0, symName: __ZNSt3__119ostreambuf_iteratorIcNS_11char_traitsIcEEEC1B8ue170006ERNS_13basic_ostreamIcS2_EE, symObjAddr: 0x166C, symBinAddr: 0x1000036B8, symSize: 0x34 }
  - { offsetInCU: 0x9BBA, offset: 0x9BBA, size: 0x8, addend: 0x0, symName: __ZNKSt3__18ios_base5flagsB8ue170006Ev, symObjAddr: 0x16A0, symBinAddr: 0x1000036EC, symSize: 0x18 }
  - { offsetInCU: 0x9BE2, offset: 0x9BE2, size: 0x8, addend: 0x0, symName: __ZNKSt3__19basic_iosIcNS_11char_traitsIcEEE4fillB8ue170006Ev, symObjAddr: 0x16B8, symBinAddr: 0x100003704, symSize: 0x64 }
  - { offsetInCU: 0x9C0A, offset: 0x9C0A, size: 0x8, addend: 0x0, symName: __ZNKSt3__119ostreambuf_iteratorIcNS_11char_traitsIcEEE6failedB8ue170006Ev, symObjAddr: 0x171C, symBinAddr: 0x100003768, symSize: 0x24 }
  - { offsetInCU: 0x9C30, offset: 0x9C30, size: 0x8, addend: 0x0, symName: __ZNSt3__19basic_iosIcNS_11char_traitsIcEEE8setstateB8ue170006Ej, symObjAddr: 0x1740, symBinAddr: 0x10000378C, symSize: 0x2C }
  - { offsetInCU: 0x9C65, offset: 0x9C65, size: 0x8, addend: 0x0, symName: __ZNKSt3__18ios_base5widthB8ue170006Ev, symObjAddr: 0x176C, symBinAddr: 0x1000037B8, symSize: 0x18 }
  - { offsetInCU: 0x9C8D, offset: 0x9C8D, size: 0x8, addend: 0x0, symName: __ZNSt3__115basic_streambufIcNS_11char_traitsIcEEE5sputnB8ue170006EPKcl, symObjAddr: 0x1784, symBinAddr: 0x1000037D0, symSize: 0x3C }
  - { offsetInCU: 0x9CCF, offset: 0x9CCF, size: 0x8, addend: 0x0, symName: __ZNSt3__112basic_stringIcNS_11char_traitsIcEENS_9allocatorIcEEEC1B8ue170006Emc, symObjAddr: 0x17C0, symBinAddr: 0x10000380C, symSize: 0x3C }
  - { offsetInCU: 0x9D17, offset: 0x9D17, size: 0x8, addend: 0x0, symName: __ZNKSt3__112basic_stringIcNS_11char_traitsIcEENS_9allocatorIcEEE4dataB8ue170006Ev, symObjAddr: 0x17FC, symBinAddr: 0x100003848, symSize: 0x28 }
  - { offsetInCU: 0x9D3D, offset: 0x9D3D, size: 0x8, addend: 0x0, symName: __ZNSt3__18ios_base5widthB8ue170006El, symObjAddr: 0x1824, symBinAddr: 0x100003870, symSize: 0x2C }
  - { offsetInCU: 0x9D83, offset: 0x9D83, size: 0x8, addend: 0x0, symName: __ZNSt3__112basic_stringIcNS_11char_traitsIcEENS_9allocatorIcEEEC2B8ue170006Emc, symObjAddr: 0x1850, symBinAddr: 0x10000389C, symSize: 0x4C }
  - { offsetInCU: 0x9DCB, offset: 0x9DCB, size: 0x8, addend: 0x0, symName: __ZNKSt3__112basic_stringIcNS_11char_traitsIcEENS_9allocatorIcEEE13__get_pointerB8ue170006Ev, symObjAddr: 0x18B0, symBinAddr: 0x1000038FC, symSize: 0x54 }
  - { offsetInCU: 0x9DF1, offset: 0x9DF1, size: 0x8, addend: 0x0, symName: __ZNKSt3__112basic_stringIcNS_11char_traitsIcEENS_9allocatorIcEEE18__get_long_pointerB8ue170006Ev, symObjAddr: 0x1904, symBinAddr: 0x100003950, symSize: 0x28 }
  - { offsetInCU: 0x9E17, offset: 0x9E17, size: 0x8, addend: 0x0, symName: __ZNKSt3__112basic_stringIcNS_11char_traitsIcEENS_9allocatorIcEEE19__get_short_pointerB8ue170006Ev, symObjAddr: 0x192C, symBinAddr: 0x100003978, symSize: 0x28 }
  - { offsetInCU: 0x9E3D, offset: 0x9E3D, size: 0x8, addend: 0x0, symName: __ZNSt3__114pointer_traitsIPKcE10pointer_toB8ue170006ERS1_, symObjAddr: 0x1954, symBinAddr: 0x1000039A0, symSize: 0x14 }
  - { offsetInCU: 0x9E60, offset: 0x9E60, size: 0x8, addend: 0x0, symName: __ZNSt3__119ostreambuf_iteratorIcNS_11char_traitsIcEEEC2B8ue170006ERNS_13basic_ostreamIcS2_EE, symObjAddr: 0x1968, symBinAddr: 0x1000039B4, symSize: 0x54 }
  - { offsetInCU: 0x9E98, offset: 0x9E98, size: 0x8, addend: 0x0, symName: __ZNKSt3__19basic_iosIcNS_11char_traitsIcEEE5rdbufB8ue170006Ev, symObjAddr: 0x19BC, symBinAddr: 0x100003A08, symSize: 0x24 }
  - { offsetInCU: 0x9EC0, offset: 0x9EC0, size: 0x8, addend: 0x0, symName: __ZNKSt3__18ios_base5rdbufB8ue170006Ev, symObjAddr: 0x19E0, symBinAddr: 0x100003A2C, symSize: 0x18 }
  - { offsetInCU: 0x9EE6, offset: 0x9EE6, size: 0x8, addend: 0x0, symName: __ZNSt3__111char_traitsIcE11eq_int_typeB8ue170006Eii, symObjAddr: 0x19F8, symBinAddr: 0x100003A44, symSize: 0x28 }
  - { offsetInCU: 0x9F19, offset: 0x9F19, size: 0x8, addend: 0x0, symName: __ZNSt3__111char_traitsIcE3eofB8ue170006Ev, symObjAddr: 0x1A20, symBinAddr: 0x100003A6C, symSize: 0x8 }
  - { offsetInCU: 0x9F2D, offset: 0x9F2D, size: 0x8, addend: 0x0, symName: __ZNKSt3__19basic_iosIcNS_11char_traitsIcEEE5widenB8ue170006Ec, symObjAddr: 0x1A28, symBinAddr: 0x100003A74, symSize: 0x84 }
  - { offsetInCU: 0x9F9B, offset: 0x9F9B, size: 0x8, addend: 0x0, symName: __ZNKSt3__15ctypeIcE5widenB8ue170006Ec, symObjAddr: 0x1AD8, symBinAddr: 0x100003B24, symSize: 0x38 }
  - { offsetInCU: 0x9FD0, offset: 0x9FD0, size: 0x8, addend: 0x0, symName: __ZNSt3__18ios_base8setstateB8ue170006Ej, symObjAddr: 0x1B10, symBinAddr: 0x100003B5C, symSize: 0x34 }
  - { offsetInCU: 0xA007, offset: 0xA007, size: 0x8, addend: 0x0, symName: __ZNKSt3__112basic_stringIcNS_11char_traitsIcEENS_9allocatorIcEEE4sizeB8ue170006Ev, symObjAddr: 0x1B44, symBinAddr: 0x100003B90, symSize: 0x54 }
  - { offsetInCU: 0xA02D, offset: 0xA02D, size: 0x8, addend: 0x0, symName: __ZNKSt3__112basic_stringIcNS_11char_traitsIcEENS_9allocatorIcEEE15__get_long_sizeB8ue170006Ev, symObjAddr: 0x1B98, symBinAddr: 0x100003BE4, symSize: 0x28 }
  - { offsetInCU: 0xA053, offset: 0xA053, size: 0x8, addend: 0x0, symName: __ZNKSt3__112basic_stringIcNS_11char_traitsIcEENS_9allocatorIcEEE16__get_short_sizeB8ue170006Ev, symObjAddr: 0x1BC0, symBinAddr: 0x100003C0C, symSize: 0x34 }
...
